; ModuleID = '60/1764.c'
source_filename = "60/1764.c"
target datalayout = "e-m:e-p270:32:32-p271:32:32-p272:64:64-i64:64-f80:128-n8:16:32:64-S128"
target triple = "x86_64-pc-linux-gnu"

@.str = private unnamed_addr constant [3 x i8] c"%d\00", align 1
@.str.1 = private unnamed_addr constant [7 x i8] c"%d %d\0A\00", align 1
@.str.2 = private unnamed_addr constant [6 x i8] c"empty\00", align 1

; Function Attrs: noinline nounwind uwtable
define dso_local i32 @sushu(i32 %0) #0 {
  %2 = alloca i32, align 4
  %3 = alloca i32, align 4
  %4 = alloca i32, align 4
  store i32 %0, i32* %2, align 4
  store i32 1, i32* %4, align 4
  store i32 2, i32* %3, align 4
  br label %5

5:                                                ; preds = %20, %1
  %6 = load i32, i32* %3, align 4
  %7 = sitofp i32 %6 to double
  %8 = load i32, i32* %2, align 4
  %9 = sitofp i32 %8 to double
  %10 = call double @sqrt(double %9) #3
  %11 = fadd double %10, 1.000000e+00
  %12 = fcmp olt double %7, %11
  br i1 %12, label %13, label %23

13:                                               ; preds = %5
  %14 = load i32, i32* %2, align 4
  %15 = load i32, i32* %3, align 4
  %16 = srem i32 %14, %15
  %17 = icmp eq i32 %16, 0
  br i1 %17, label %18, label %19

18:                                               ; preds = %13
  store i32 0, i32* %4, align 4
  br label %23

19:                                               ; preds = %13
  br label %20

20:                                               ; preds = %19
  %21 = load i32, i32* %3, align 4
  %22 = add nsw i32 %21, 1
  store i32 %22, i32* %3, align 4
  br label %5

23:                                               ; preds = %18, %5
  %24 = load i32, i32* %4, align 4
  ret i32 %24
}

; Function Attrs: nounwind
declare dso_local double @sqrt(double) #1

; Function Attrs: noinline nounwind uwtable
define dso_local i32 @main() #0 {
  %1 = alloca i32, align 4
  %2 = alloca i32, align 4
  %3 = alloca i32, align 4
  %4 = alloca i32, align 4
  %5 = alloca i32, align 4
  %6 = alloca i32, align 4
  %7 = alloca i32, align 4
  store i32 0, i32* %1, align 4
  store i32 0, i32* %7, align 4
  %8 = call i32 (i8*, ...) @__isoc99_scanf(i8* getelementptr inbounds ([3 x i8], [3 x i8]* @.str, i64 0, i64 0), i32* %6)
  store i32 3, i32* %2, align 4
  br label %9

9:                                                ; preds = %29, %0
  %10 = load i32, i32* %2, align 4
  %11 = add nsw i32 %10, 2
  %12 = load i32, i32* %6, align 4
  %13 = icmp sle i32 %11, %12
  br i1 %13, label %14, label %32

14:                                               ; preds = %9
  %15 = load i32, i32* %2, align 4
  %16 = call i32 @sushu(i32 %15)
  %17 = icmp eq i32 %16, 1
  br i1 %17, label %18, label %28

18:                                               ; preds = %14
  %19 = load i32, i32* %2, align 4
  %20 = add nsw i32 %19, 2
  %21 = call i32 @sushu(i32 %20)
  %22 = icmp eq i32 %21, 1
  br i1 %22, label %23, label %28

23:                                               ; preds = %18
  store i32 1, i32* %7, align 4
  %24 = load i32, i32* %2, align 4
  %25 = load i32, i32* %2, align 4
  %26 = add nsw i32 %25, 2
  %27 = call i32 (i8*, ...) @printf(i8* getelementptr inbounds ([7 x i8], [7 x i8]* @.str.1, i64 0, i64 0), i32 %24, i32 %26)
  br label %28

28:                                               ; preds = %23, %18, %14
  br label %29

29:                                               ; preds = %28
  %30 = load i32, i32* %2, align 4
  %31 = add nsw i32 %30, 1
  store i32 %31, i32* %2, align 4
  br label %9

32:                                               ; preds = %9
  %33 = load i32, i32* %7, align 4
  %34 = icmp eq i32 %33, 0
  br i1 %34, label %35, label %37

35:                                               ; preds = %32
  %36 = call i32 (i8*, ...) @printf(i8* getelementptr inbounds ([6 x i8], [6 x i8]* @.str.2, i64 0, i64 0))
  br label %37

37:                                               ; preds = %35, %32
  %38 = load i32, i32* %1, align 4
  ret i32 %38
}

declare dso_local i32 @__isoc99_scanf(i8*, ...) #2

declare dso_local i32 @printf(i8*, ...) #2


!llvm.module.flags = !{!0}
!llvm.ident = !{!1}

!0 = !{i32 1, !"wchar_size", i32 4}
!1 = !{!"clang version 10.0.0-4ubuntu1 "}
